(dp0
S'_AgentService:AgentInfo'
p1
(dp2
S'com.plexapp.agents.fanarttv'
p3
(lp4
(dp5
S'media_types'
p6
(lp7
S'Movie'
p8
asS'primary_provider'
p9
I00
sS'fallback_agent'
p10
NsS'contributes_to'
p11
(lp12
S'com.plexapp.agents.imdb'
p13
aS'com.plexapp.agents.themoviedb'
p14
asS'has_attribution'
p15
I01
sS'languages'
p16
(lp17
S'xn'
p18
asS'persist_stored_files'
p19
I01
sS'version'
p20
I0
sS'accepts_from'
p21
NsS'prefs'
p22
I01
sS'name'
p23
S'Fanart.tv'
p24
sa(dp25
S'media_types'
p26
(lp27
S'TV_Show'
p28
asS'primary_provider'
p29
I00
sS'fallback_agent'
p30
NsS'contributes_to'
p31
(lp32
S'com.plexapp.agents.thetvdb'
p33
aS'com.plexapp.agents.themoviedb'
p34
asg15
I01
sS'languages'
p35
(lp36
S'xn'
p37
asS'persist_stored_files'
p38
I01
sS'version'
p39
I0
sS'accepts_from'
p40
NsS'prefs'
p41
I01
sS'name'
p42
S'Fanart.tv'
p43
sa(dp44
S'media_types'
p45
(lp46
S'Artist'
p47
asS'primary_provider'
p48
I00
sS'fallback_agent'
p49
NsS'contributes_to'
p50
(lp51
S'com.plexapp.agents.lastfm'
p52
asg15
I01
sS'languages'
p53
(lp54
S'xn'
p55
asS'persist_stored_files'
p56
I01
sS'version'
p57
I0
sS'accepts_from'
p58
NsS'prefs'
p59
I01
sS'name'
p60
S'Fanart.tv'
p61
sa(dp62
S'media_types'
p63
(lp64
S'Album'
p65
asS'primary_provider'
p66
I00
sS'fallback_agent'
p67
NsS'contributes_to'
p68
(lp69
S'com.plexapp.agents.lastfm'
p70
asg15
I01
sS'languages'
p71
(lp72
S'xn'
p73
asS'persist_stored_files'
p74
I01
sS'version'
p75
I0
sS'accepts_from'
p76
NsS'prefs'
p77
I01
sS'name'
p78
S'Fanart.tv'
p79
sasS'com.plexapp.agents.none'
p80
(lp81
(dp82
S'media_types'
p83
(lp84
S'Movie'
p85
asS'primary_provider'
p86
I01
sS'fallback_agent'
p87
NsS'contributes_to'
p88
Nsg15
I00
sS'languages'
p89
(lp90
S'xn'
p91
asS'persist_stored_files'
p92
I01
sS'version'
p93
I0
sS'accepts_from'
p94
NsS'prefs'
p95
I00
sS'name'
p96
S'Personal Media'
p97
sa(dp98
S'media_types'
p99
(lp100
S'TV_Show'
p101
asS'primary_provider'
p102
I01
sS'fallback_agent'
p103
NsS'contributes_to'
p104
Nsg15
I00
sS'languages'
p105
(lp106
S'xn'
p107
asS'persist_stored_files'
p108
I01
sS'version'
p109
I0
sS'accepts_from'
p110
NsS'prefs'
p111
I00
sS'name'
p112
S'Personal Media Shows'
p113
sa(dp114
S'media_types'
p115
(lp116
S'Artist'
p117
asS'primary_provider'
p118
I01
sS'fallback_agent'
p119
NsS'contributes_to'
p120
Nsg15
I00
sS'languages'
p121
(lp122
S'xn'
p123
asS'persist_stored_files'
p124
I01
sS'version'
p125
I0
sS'accepts_from'
p126
NsS'prefs'
p127
I00
sS'name'
p128
S'Personal Media Artists'
p129
sa(dp130
S'media_types'
p131
(lp132
S'Album'
p133
asS'primary_provider'
p134
I01
sS'fallback_agent'
p135
NsS'contributes_to'
p136
Nsg15
I00
sS'languages'
p137
(lp138
S'xn'
p139
asS'persist_stored_files'
p140
I01
sS'version'
p141
I0
sS'accepts_from'
p142
NsS'prefs'
p143
I00
sS'name'
p144
S'Personal Media Albums'
p145
sa(dp146
S'media_types'
p147
(lp148
S'Photo'
p149
asS'primary_provider'
p150
I01
sS'fallback_agent'
p151
NsS'contributes_to'
p152
Nsg15
I00
sS'languages'
p153
(lp154
S'en'
p155
aS'ar'
p156
aS'bg'
p157
aS'ca'
p158
aS'cs'
p159
aS'cy'
p160
aS'da'
p161
aS'de'
p162
aS'el'
p163
aS'es'
p164
aS'et'
p165
aS'fa'
p166
aS'fi'
p167
aS'fr'
p168
aS'he'
p169
aS'hi'
p170
aS'hr'
p171
aS'ht'
p172
aS'hu'
p173
aS'id'
p174
aS'it'
p175
aS'ja'
p176
aS'ko'
p177
aS'lt'
p178
aS'lv'
p179
aS'ms'
p180
aS'mt'
p181
aS'nl'
p182
aS'no'
p183
aS'pl'
p184
aS'pt'
p185
aS'ro'
p186
aS'ru'
p187
aS'sk'
p188
aS'sv'
p189
aS'sl'
p190
aS'sr'
p191
aS'th'
p192
aS'tr'
p193
aS'uk'
p194
aS'ur'
p195
aS'vi'
p196
aS'zh'
p197
aS'xn'
p198
asS'persist_stored_files'
p199
I01
sS'version'
p200
I0
sS'accepts_from'
p201
NsS'prefs'
p202
I00
sS'name'
p203
S'Photos'
p204
sasS'org.musicbrainz.agents.music'
p205
(lp206
(dp207
S'media_types'
p208
(lp209
S'Artist'
p210
asS'primary_provider'
p211
I01
sS'fallback_agent'
p212
NsS'contributes_to'
p213
Nsg15
I01
sS'languages'
p214
(lp215
S'en'
p216
aS'ar'
p217
aS'bg'
p218
aS'zh'
p219
aS'hr'
p220
aS'cs'
p221
aS'da'
p222
aS'nl'
p223
aS'fi'
p224
aS'fr'
p225
aS'de'
p226
aS'el'
p227
aS'hu'
p228
aS'id'
p229
aS'it'
p230
aS'ja'
p231
aS'ko'
p232
aS'nn'
p233
aS'pl'
p234
aS'pt'
p235
aS'ro'
p236
aS'ru'
p237
aS'sr'
p238
aS'sk'
p239
aS'es'
p240
aS'sv'
p241
aS'th'
p242
aS'tr'
p243
aS'vi'
p244
aS'xx'
p245
asS'persist_stored_files'
p246
I01
sS'version'
p247
I0
sS'accepts_from'
p248
NsS'prefs'
p249
I01
sS'name'
p250
S'Musicbrainz'
p251
sa(dp252
S'media_types'
p253
(lp254
S'Album'
p255
asS'primary_provider'
p256
I01
sS'fallback_agent'
p257
NsS'contributes_to'
p258
Nsg15
I01
sS'languages'
p259
g215
sS'persist_stored_files'
p260
I01
sS'version'
p261
I0
sS'accepts_from'
p262
NsS'prefs'
p263
I01
sS'name'
p264
S'Musicbrainz'
p265
sasS'tv.plex.agents.music'
p266
(lp267
(dp268
S'media_types'
p269
(lp270
S'Artist'
p271
asS'primary_provider'
p272
I01
sS'fallback_agent'
p273
NsS'contributes_to'
p274
(lp275
S'com.plexapp.agents.localmedia'
p276
asg15
I01
sS'languages'
p277
(lp278
S'en'
p279
aS'ar'
p280
aS'bg'
p281
aS'zh'
p282
aS'hr'
p283
aS'cs'
p284
aS'da'
p285
aS'nl'
p286
aS'fi'
p287
aS'fr'
p288
aS'de'
p289
aS'el'
p290
aS'hu'
p291
aS'id'
p292
aS'it'
p293
aS'ja'
p294
aS'ko'
p295
aS'nn'
p296
aS'pl'
p297
aS'pt'
p298
aS'ro'
p299
aS'ru'
p300
aS'sr'
p301
aS'sk'
p302
aS'es'
p303
aS'sv'
p304
aS'th'
p305
aS'tr'
p306
aS'vi'
p307
aS'xx'
p308
asS'persist_stored_files'
p309
I01
sS'version'
p310
I0
sS'accepts_from'
p311
NsS'prefs'
p312
I01
sS'name'
p313
S'Plex Music'
p314
sa(dp315
S'media_types'
p316
(lp317
S'Album'
p318
asS'primary_provider'
p319
I01
sS'fallback_agent'
p320
NsS'contributes_to'
p321
(lp322
S'com.plexapp.agents.localmedia'
p323
asg15
I01
sS'languages'
p324
g278
sS'persist_stored_files'
p325
I01
sS'version'
p326
I0
sS'accepts_from'
p327
NsS'prefs'
p328
I01
sS'name'
p329
S'Plex Music'
p330
sasS'com.plexapp.agents.opensubtitles'
p331
(lp332
(dp333
S'media_types'
p334
(lp335
S'Movie'
p336
asS'primary_provider'
p337
I00
sS'fallback_agent'
p338
NsS'contributes_to'
p339
(lp340
S'com.plexapp.agents.imdb'
p341
asg15
I00
sS'languages'
p342
(lp343
S'xn'
p344
asS'persist_stored_files'
p345
I01
sS'version'
p346
I0
sS'accepts_from'
p347
NsS'prefs'
p348
I01
sS'name'
p349
S'OpenSubtitles.org'
p350
sa(dp351
S'media_types'
p352
(lp353
S'TV_Show'
p354
asS'primary_provider'
p355
I00
sS'fallback_agent'
p356
NsS'contributes_to'
p357
(lp358
S'com.plexapp.agents.thetvdb'
p359
asg15
I00
sS'languages'
p360
(lp361
S'xn'
p362
asS'persist_stored_files'
p363
I01
sS'version'
p364
I0
sS'accepts_from'
p365
NsS'prefs'
p366
I01
sS'name'
p367
S'OpenSubtitles.org'
p368
sasS'com.plexapp.agents.imdb'
p369
(lp370
(dp371
S'media_types'
p372
(lp373
S'Movie'
p374
asS'primary_provider'
p375
I01
sS'fallback_agent'
p376
NsS'contributes_to'
p377
(lp378
S'com.plexapp.agents.themoviedb'
p379
asg15
I01
sS'languages'
p380
(lp381
S'en'
p382
aS'sv'
p383
aS'fr'
p384
aS'es'
p385
aS'nl'
p386
aS'de'
p387
aS'it'
p388
aS'da'
p389
aS'ar'
p390
aS'ca'
p391
aS'zh'
p392
aS'cs'
p393
aS'et'
p394
aS'fi'
p395
aS'el'
p396
aS'he'
p397
aS'hi'
p398
aS'hu'
p399
aS'id'
p400
aS'ja'
p401
aS'ko'
p402
aS'lv'
p403
aS'no'
p404
aS'fa'
p405
aS'pl'
p406
aS'pt'
p407
aS'ro'
p408
aS'ru'
p409
aS'sk'
p410
aS'th'
p411
aS'tr'
p412
aS'uk'
p413
aS'vi'
p414
asS'persist_stored_files'
p415
I01
sS'version'
p416
I0
sS'accepts_from'
p417
(lp418
S'com.plexapp.agents.localmedia'
p419
asS'prefs'
p420
I01
sS'name'
p421
S'Plex Movie'
p422
sasS'com.plexapp.agents.lyricfind'
p423
(lp424
(dp425
S'media_types'
p426
(lp427
S'Album'
p428
asS'primary_provider'
p429
I00
sS'fallback_agent'
p430
NsS'contributes_to'
p431
(lp432
S'com.plexapp.agents.lastfm'
p433
aS'tv.plex.agents.music'
p434
aS'org.musicbrainz.agents.music'
p435
asg15
I01
sS'languages'
p436
(lp437
S'xn'
p438
asS'persist_stored_files'
p439
I01
sS'version'
p440
I0
sS'accepts_from'
p441
NsS'prefs'
p442
I00
sS'name'
p443
S'LyricFind'
p444
sasS'com.plexapp.agents.thetvdb'
p445
(lp446
(dp447
S'media_types'
p448
(lp449
S'TV_Show'
p450
asS'primary_provider'
p451
I01
sS'fallback_agent'
p452
NsS'contributes_to'
p453
Nsg15
I01
sS'languages'
p454
(lp455
S'en'
p456
aS'fr'
p457
aS'zh'
p458
aS'sv'
p459
aS'no'
p460
aS'da'
p461
aS'fi'
p462
aS'nl'
p463
aS'de'
p464
aS'it'
p465
aS'es'
p466
aS'pl'
p467
aS'hu'
p468
aS'el'
p469
aS'tr'
p470
aS'ru'
p471
aS'he'
p472
aS'ja'
p473
aS'pt'
p474
aS'cs'
p475
aS'ko'
p476
aS'sl'
p477
aS'hr'
p478
asS'persist_stored_files'
p479
I01
sS'version'
p480
I0
sS'accepts_from'
p481
NsS'prefs'
p482
I01
sS'name'
p483
S'TheTVDB'
p484
sasS'tv.plex.agents.movie'
p485
(lp486
(dp487
S'media_types'
p488
(lp489
S'Movie'
p490
asS'primary_provider'
p491
I01
sS'fallback_agent'
p492
NsS'contributes_to'
p493
Nsg15
I01
sS'languages'
p494
(lp495
sS'persist_stored_files'
p496
I01
sS'version'
p497
I0
sS'accepts_from'
p498
NsS'prefs'
p499
I01
sS'name'
p500
S'Plex Movie'
p501
sasS'tv.plex.agents.series'
p502
(lp503
(dp504
S'media_types'
p505
(lp506
S'TV_Show'
p507
asS'primary_provider'
p508
I01
sS'fallback_agent'
p509
NsS'contributes_to'
p510
Nsg15
I01
sS'languages'
p511
(lp512
sS'persist_stored_files'
p513
I01
sS'version'
p514
I0
sS'accepts_from'
p515
NsS'prefs'
p516
I01
sS'name'
p517
S'Plex TV Series'
p518
sasS'com.plexapp.agents.lastfm'
p519
(lp520
(dp521
S'media_types'
p522
(lp523
S'Artist'
p524
asS'primary_provider'
p525
I01
sS'fallback_agent'
p526
NsS'contributes_to'
p527
Nsg15
I01
sS'languages'
p528
(lp529
S'en'
p530
aS'sv'
p531
aS'fr'
p532
aS'es'
p533
aS'de'
p534
aS'pl'
p535
aS'it'
p536
aS'pt'
p537
aS'ja'
p538
aS'tr'
p539
aS'ru'
p540
aS'zh'
p541
asS'persist_stored_files'
p542
I01
sS'version'
p543
I0
sS'accepts_from'
p544
NsS'prefs'
p545
I01
sS'name'
p546
S'Last.fm'
p547
sa(dp548
S'media_types'
p549
(lp550
S'Album'
p551
asS'primary_provider'
p552
I01
sS'fallback_agent'
p553
NsS'contributes_to'
p554
Nsg15
I01
sS'languages'
p555
(lp556
S'en'
p557
aS'sv'
p558
aS'fr'
p559
aS'es'
p560
aS'de'
p561
aS'pl'
p562
aS'it'
p563
aS'pt'
p564
aS'ja'
p565
aS'tr'
p566
aS'ru'
p567
aS'zh'
p568
asS'persist_stored_files'
p569
I01
sS'version'
p570
I0
sS'accepts_from'
p571
NsS'prefs'
p572
I01
sS'name'
p573
S'Last.fm'
p574
sasS'com.plexapp.agents.htbackdrops'
p575
(lp576
(dp577
S'media_types'
p578
(lp579
S'Artist'
p580
asS'primary_provider'
p581
I00
sS'fallback_agent'
p582
NsS'contributes_to'
p583
(lp584
S'com.plexapp.agents.lastfm'
p585
asg15
I01
sS'languages'
p586
(lp587
S'ab'
p588
aS'aa'
p589
aS'af'
p590
aS'ak'
p591
aS'sq'
p592
aS'am'
p593
aS'ar'
p594
aS'an'
p595
aS'hy'
p596
aS'as'
p597
aS'av'
p598
aS'ae'
p599
aS'ay'
p600
aS'az'
p601
aS'bm'
p602
aS'ba'
p603
aS'eu'
p604
aS'be'
p605
aS'bn'
p606
aS'bh'
p607
aS'bi'
p608
aS'bs'
p609
aS'pb'
p610
aS'br'
p611
aS'bg'
p612
aS'my'
p613
aS'ca'
p614
aS'ch'
p615
aS'ce'
p616
aS'ny'
p617
aS'zh'
p618
aS'cu'
p619
aS'cv'
p620
aS'kw'
p621
aS'co'
p622
aS'cr'
p623
aS'hr'
p624
aS'cs'
p625
aS'da'
p626
aS'dv'
p627
aS'nl'
p628
aS'dz'
p629
aS'en'
p630
aS'eo'
p631
aS'et'
p632
aS'ee'
p633
aS'fo'
p634
aS'fj'
p635
aS'fi'
p636
aS'fr'
p637
aS'fy'
p638
aS'ff'
p639
aS'gd'
p640
aS'gl'
p641
aS'lg'
p642
aS'ka'
p643
aS'de'
p644
aS'el'
p645
aS'gn'
p646
aS'gu'
p647
aS'ht'
p648
aS'ha'
p649
aS'he'
p650
aS'hz'
p651
aS'hi'
p652
aS'ho'
p653
aS'hu'
p654
aS'is'
p655
aS'io'
p656
aS'ig'
p657
aS'id'
p658
aS'ia'
p659
aS'ie'
p660
aS'iu'
p661
aS'ik'
p662
aS'ga'
p663
aS'it'
p664
aS'ja'
p665
aS'jv'
p666
aS'kl'
p667
aS'kn'
p668
aS'kr'
p669
aS'ks'
p670
aS'kk'
p671
aS'km'
p672
aS'ki'
p673
aS'rw'
p674
aS'ky'
p675
aS'kv'
p676
aS'kg'
p677
aS'ko'
p678
aS'kj'
p679
aS'ku'
p680
aS'lo'
p681
aS'la'
p682
aS'lv'
p683
aS'li'
p684
aS'ln'
p685
aS'lt'
p686
aS'lu'
p687
aS'lb'
p688
aS'mk'
p689
aS'mg'
p690
aS'ms'
p691
aS'ml'
p692
aS'mt'
p693
aS'gv'
p694
aS'mi'
p695
aS'mr'
p696
aS'mh'
p697
aS'mo'
p698
aS'mn'
p699
aS'na'
p700
aS'nv'
p701
aS'ng'
p702
aS'ne'
p703
aS'xn'
p704
aS'nd'
p705
aS'no'
p706
aS'nb'
p707
aS'nn'
p708
aS'oc'
p709
aS'oj'
p710
aS'or'
p711
aS'om'
p712
aS'os'
p713
aS'pi'
p714
aS'pa'
p715
aS'fa'
p716
aS'pl'
p717
aS'pt'
p718
aS'ps'
p719
aS'qu'
p720
aS'rm'
p721
aS'ro'
p722
aS'rn'
p723
aS'ru'
p724
aS'se'
p725
aS'sm'
p726
aS'sg'
p727
aS'sa'
p728
aS'sc'
p729
aS'sr'
p730
aS'sn'
p731
aS'ii'
p732
aS'sd'
p733
aS'si'
p734
aS'sk'
p735
aS'sl'
p736
aS'so'
p737
aS'st'
p738
aS'nr'
p739
aS'es'
p740
aS'su'
p741
aS'sw'
p742
aS'ss'
p743
aS'sv'
p744
aS'tl'
p745
aS'ty'
p746
aS'tg'
p747
aS'ta'
p748
aS'tt'
p749
aS'te'
p750
aS'th'
p751
aS'bo'
p752
aS'ti'
p753
aS'to'
p754
aS'ts'
p755
aS'tn'
p756
aS'tr'
p757
aS'tk'
p758
aS'tw'
p759
aS'ug'
p760
aS'uk'
p761
aS'ur'
p762
aS'uz'
p763
aS've'
p764
aS'vi'
p765
aS'vo'
p766
aS'wa'
p767
aS'cy'
p768
aS'wo'
p769
aS'xh'
p770
aS'yi'
p771
aS'yo'
p772
aS'za'
p773
aS'zu'
p774
asS'persist_stored_files'
p775
I01
sS'version'
p776
I0
sS'accepts_from'
p777
NsS'prefs'
p778
I00
sS'name'
p779
S'Home Theater Backdrops'
p780
sasS'com.plexapp.agents.themoviedb'
p781
(lp782
(dp783
S'media_types'
p784
(lp785
S'Movie'
p786
asS'primary_provider'
p787
I01
sS'fallback_agent'
p788
NsS'contributes_to'
p789
Nsg15
I01
sS'languages'
p790
(lp791
S'en'
p792
aS'cs'
p793
aS'da'
p794
aS'de'
p795
aS'el'
p796
aS'es'
p797
aS'fi'
p798
aS'fr'
p799
aS'he'
p800
aS'hr'
p801
aS'hu'
p802
aS'it'
p803
aS'lv'
p804
aS'lt'
p805
aS'nl'
p806
aS'no'
p807
aS'pl'
p808
aS'pt'
p809
aS'ru'
p810
aS'sk'
p811
aS'sv'
p812
aS'th'
p813
aS'tr'
p814
aS'vi'
p815
aS'zh'
p816
aS'ko'
p817
asS'persist_stored_files'
p818
I01
sS'version'
p819
I0
sS'accepts_from'
p820
(lp821
S'com.plexapp.agents.localmedia'
p822
asS'prefs'
p823
I01
sS'name'
p824
S'The Movie Database'
p825
sa(dp826
S'media_types'
p827
(lp828
S'TV_Show'
p829
asS'primary_provider'
p830
I01
sS'fallback_agent'
p831
NsS'contributes_to'
p832
(lp833
S'com.plexapp.agents.thetvdb'
p834
asg15
I01
sS'languages'
p835
g791
sS'persist_stored_files'
p836
I01
sS'version'
p837
I0
sS'accepts_from'
p838
(lp839
S'com.plexapp.agents.localmedia'
p840
aS'com.plexapp.agents.thetvdb'
p841
asS'prefs'
p842
I01
sS'name'
p843
S'The Movie Database'
p844
sasS'com.plexapp.agents.movieposterdb'
p845
(lp846
(dp847
S'media_types'
p848
(lp849
S'Movie'
p850
asS'primary_provider'
p851
I00
sS'fallback_agent'
p852
NsS'contributes_to'
p853
(lp854
S'com.plexapp.agents.imdb'
p855
asg15
I01
sS'languages'
p856
(lp857
S'xn'
p858
asS'persist_stored_files'
p859
I01
sS'version'
p860
I0
sS'accepts_from'
p861
NsS'prefs'
p862
I00
sS'name'
p863
S'CineMaterial'
p864
sasS'com.plexapp.agents.localmedia'
p865
(lp866
(dp867
S'media_types'
p868
(lp869
S'Movie'
p870
asS'primary_provider'
p871
I00
sS'fallback_agent'
p872
NsS'contributes_to'
p873
(lp874
S'com.plexapp.agents.imdb'
p875
aS'com.plexapp.agents.none'
p876
asg15
I00
sS'languages'
p877
(lp878
S'xn'
p879
asS'persist_stored_files'
p880
I00
sS'version'
p881
I0
sS'accepts_from'
p882
NsS'prefs'
p883
I01
sS'name'
p884
S'Local Media Assets (Movies)'
p885
sa(dp886
S'media_types'
p887
(lp888
S'TV_Show'
p889
asS'primary_provider'
p890
I00
sS'fallback_agent'
p891
NsS'contributes_to'
p892
(lp893
S'com.plexapp.agents.thetvdb'
p894
aS'com.plexapp.agents.none'
p895
asg15
I00
sS'languages'
p896
(lp897
S'xn'
p898
asS'persist_stored_files'
p899
I00
sS'version'
p900
I0
sS'accepts_from'
p901
NsS'prefs'
p902
I01
sS'name'
p903
S'Local Media Assets (TV)'
p904
sa(dp905
S'media_types'
p906
(lp907
S'Artist'
p908
asS'primary_provider'
p909
I00
sS'fallback_agent'
p910
NsS'contributes_to'
p911
(lp912
S'com.plexapp.agents.discogs'
p913
aS'com.plexapp.agents.lastfm'
p914
aS'com.plexapp.agents.plexmusic'
p915
aS'com.plexapp.agents.none'
p916
aS'tv.plex.agents.music'
p917
aS'org.musicbrainz.agents.music'
p918
asg15
I00
sS'languages'
p919
(lp920
S'xn'
p921
asS'persist_stored_files'
p922
I00
sS'version'
p923
I0
sS'accepts_from'
p924
NsS'prefs'
p925
I01
sS'name'
p926
S'Local Media Assets (Artists)'
p927
sa(dp928
S'media_types'
p929
(lp930
S'Artist'
p931
asS'primary_provider'
p932
I00
sS'fallback_agent'
p933
NsS'contributes_to'
p934
(lp935
S'com.plexapp.agents.plexmusic'
p936
asg15
I00
sS'languages'
p937
g920
sS'persist_stored_files'
p938
I00
sS'version'
p939
I2
sS'accepts_from'
p940
NsS'prefs'
p941
I01
sS'name'
p942
S'Local Media Assets (Artists)'
p943
sa(dp944
S'media_types'
p945
(lp946
S'Album'
p947
asS'primary_provider'
p948
I00
sS'fallback_agent'
p949
NsS'contributes_to'
p950
(lp951
S'com.plexapp.agents.discogs'
p952
aS'com.plexapp.agents.lastfm'
p953
aS'com.plexapp.agents.plexmusic'
p954
aS'com.plexapp.agents.none'
p955
aS'tv.plex.agents.music'
p956
aS'org.musicbrainz.agents.music'
p957
asg15
I00
sS'languages'
p958
(lp959
S'xn'
p960
asS'persist_stored_files'
p961
I00
sS'version'
p962
I0
sS'accepts_from'
p963
NsS'prefs'
p964
I01
sS'name'
p965
S'Local Media Assets (Albums)'
p966
sasS'com.plexapp.agents.plexthememusic'
p967
(lp968
(dp969
S'media_types'
p970
(lp971
S'TV_Show'
p972
asS'primary_provider'
p973
I00
sS'fallback_agent'
p974
NsS'contributes_to'
p975
(lp976
S'com.plexapp.agents.thetvdb'
p977
aS'com.plexapp.agents.thetvdbdvdorder'
p978
aS'com.plexapp.agents.themoviedb'
p979
asg15
I00
sS'languages'
p980
(lp981
S'xn'
p982
asS'persist_stored_files'
p983
I01
sS'version'
p984
I0
sS'accepts_from'
p985
NsS'prefs'
p986
I00
sS'name'
p987
S'Plex Theme Music'
p988
sass.